target datalayout = "e-m:e-p270:32:32-p271:32:32-p272:64:64-i64:64-i128:128-f80:128-n8:16:32:64-S128"
target triple = "x86_64-pc-linux-gnu"

%"struct.Luau::NotNull" = type { ptr }
%"struct.Luau::NotNull.5" = type { ptr }
%"struct.Luau::NotNull.6" = type { ptr }
%"struct.Luau::DataFlowGraph" = type { %"struct.Luau::NotNull.5", %"struct.Luau::NotNull.6", %"class.Luau::DenseHashMap", %"class.Luau::DenseHashMap.7", %"class.Luau::DenseHashMap.10", %"class.Luau::DenseHashMap", %"class.Luau::DenseHashMap.13" }
%"class.Luau::DenseHashMap.7" = type { %"class.Luau::detail::DenseHashTable.8" }
%"class.Luau::detail::DenseHashTable.8" = type <{ ptr, i64, i64, ptr, [8 x i8] }>
%"class.Luau::DenseHashMap.10" = type { %"class.Luau::detail::DenseHashTable.11" }
%"class.Luau::detail::DenseHashTable.11" = type <{ ptr, i64, i64, ptr, [8 x i8] }>
%"class.Luau::DenseHashMap" = type { %"class.Luau::detail::DenseHashTable" }
%"class.Luau::detail::DenseHashTable" = type <{ ptr, i64, i64, ptr, [8 x i8] }>
%"class.Luau::DenseHashMap.13" = type { %"class.Luau::detail::DenseHashTable.14" }
%"class.Luau::detail::DenseHashTable.14" = type <{ ptr, i64, i64, ptr, [8 x i8] }>
%"struct.Luau::Symbol" = type { ptr, %"struct.Luau::AstName" }
%"struct.Luau::AstName" = type { ptr }
%"struct.Luau::DataFlowGraphBuilder" = type { %"struct.Luau::DataFlowGraph", %"struct.Luau::NotNull.5", %"struct.Luau::NotNull.6", ptr, %"class.std::vector.43", %"class.std::vector.48", %"class.Luau::DenseHashMap.53" }
%"class.std::vector.43" = type { %"struct.std::_Vector_base.44" }
%"struct.std::_Vector_base.44" = type { %"struct.std::_Vector_base<std::unique_ptr<Luau::DfgScope>, std::allocator<std::unique_ptr<Luau::DfgScope>>>::_Vector_impl" }
%"struct.std::_Vector_base<std::unique_ptr<Luau::DfgScope>, std::allocator<std::unique_ptr<Luau::DfgScope>>>::_Vector_impl" = type { %"struct.std::_Vector_base<std::unique_ptr<Luau::DfgScope>, std::allocator<std::unique_ptr<Luau::DfgScope>>>::_Vector_impl_data" }
%"struct.std::_Vector_base<std::unique_ptr<Luau::DfgScope>, std::allocator<std::unique_ptr<Luau::DfgScope>>>::_Vector_impl_data" = type { ptr, ptr, ptr }
%"class.std::vector.48" = type { %"struct.std::_Vector_base.49" }
%"struct.std::_Vector_base.49" = type { %"struct.std::_Vector_base<Luau::DfgScope *, std::allocator<Luau::DfgScope *>>::_Vector_impl" }
%"struct.std::_Vector_base<Luau::DfgScope *, std::allocator<Luau::DfgScope *>>::_Vector_impl" = type { %"struct.std::_Vector_base<Luau::DfgScope *, std::allocator<Luau::DfgScope *>>::_Vector_impl_data" }
%"struct.std::_Vector_base<Luau::DfgScope *, std::allocator<Luau::DfgScope *>>::_Vector_impl_data" = type { ptr, ptr, ptr }
%"class.Luau::DenseHashMap.53" = type { %"class.Luau::detail::DenseHashTable.54" }
%"class.Luau::detail::DenseHashTable.54" = type <{ ptr, i64, i64, %"struct.Luau::Symbol", [8 x i8] }>
%"class.Luau::AstNode.base" = type <{ ptr, i32, %"struct.Luau::Location" }>
%"struct.Luau::Location" = type { %"struct.Luau::Position", %"struct.Luau::Position" }
%"struct.Luau::Position" = type { i32, i32 }
%"struct.Luau::DataFlowResult" = type { %"struct.Luau::NotNull", ptr }
%"class.Luau::AstExpr.base" = type { %"class.Luau::AstNode.base" }
%"class.Luau::AstExprUnary" = type { %"class.Luau::AstExpr.base", i32, ptr }

; Function Attrs: mustprogress nounwind uwtable
define linkonce_odr dso_local noundef ptr @_ZNK4Luau7NotNullINS_8DefArenaEEptEv(ptr noundef nonnull align 8 dereferenceable(8) %0) #4 comdat align 2 {
  %2 = alloca ptr, align 8
  store ptr %0, ptr %2, align 8, !tbaa !231
  %3 = load ptr, ptr %2, align 8
  %4 = getelementptr inbounds nuw %"struct.Luau::NotNull.5", ptr %3, i32 0, i32 0
  %5 = load ptr, ptr %4, align 8, !tbaa !233
  ret ptr %5
}

; Function Attrs: mustprogress uwtable
define dso_local { ptr, ptr } @_ZN4Luau20DataFlowGraphBuilder9visitExprEPNS_12AstExprUnaryE(ptr noundef nonnull align 8 dereferenceable(336) %0, ptr noundef %1) #2 align 2 {
  %3 = alloca %"struct.Luau::DataFlowResult", align 8
  %4 = alloca ptr, align 8
  %5 = alloca ptr, align 8
  %6 = alloca %"struct.Luau::DataFlowResult", align 8
  store ptr %0, ptr %4, align 8, !tbaa !154
  store ptr %1, ptr %5, align 8, !tbaa !508
  %7 = load ptr, ptr %4, align 8
  %8 = load ptr, ptr %5, align 8, !tbaa !508
  %9 = getelementptr inbounds nuw %"class.Luau::AstExprUnary", ptr %8, i32 0, i32 2
  %10 = load ptr, ptr %9, align 8, !tbaa !569
  %11 = call { ptr, ptr } @_ZN4Luau20DataFlowGraphBuilder9visitExprEPNS_7AstExprE(ptr noundef nonnull align 8 dereferenceable(336) %7, ptr noundef %10)
  %12 = getelementptr inbounds nuw { ptr, ptr }, ptr %6, i32 0, i32 0
  %13 = extractvalue { ptr, ptr } %11, 0
  store ptr %13, ptr %12, align 8
  %14 = getelementptr inbounds nuw { ptr, ptr }, ptr %6, i32 0, i32 1
  %15 = extractvalue { ptr, ptr } %11, 1
  store ptr %15, ptr %14, align 8
  %16 = getelementptr inbounds nuw %"struct.Luau::DataFlowGraphBuilder", ptr %7, i32 0, i32 1
  %17 = call noundef ptr @_ZNK4Luau7NotNullINS_8DefArenaEEptEv(ptr noundef nonnull align 8 dereferenceable(8) %16) #17
  %18 = call ptr @_ZN4Luau8DefArena9freshCellEb(ptr noundef nonnull align 8 dereferenceable(40) %17, i1 noundef zeroext false)
  %19 = getelementptr inbounds nuw %"struct.Luau::NotNull", ptr %3, i32 0, i32 0
  store ptr %18, ptr %19, align 8
  %20 = getelementptr inbounds nuw %"struct.Luau::DataFlowResult", ptr %3, i32 0, i32 1
  store ptr null, ptr %20, align 8, !tbaa !422
  %21 = load { ptr, ptr }, ptr %3, align 8
  ret { ptr, ptr } %21
}